; Function Attrs: nounwind uwtable
define void @Nwk_ObjCollectFanouts(ptr noundef readonly captures(none) %0, ptr noundef captures(none) initializes((4, 8)) %1) local_unnamed_addr #0 {
  %3 = getelementptr inbounds nuw i8, ptr %1, i64 4
  store i32 0, ptr %3, align 4
  %4 = getelementptr inbounds nuw i8, ptr %0, i64 72
  %5 = getelementptr inbounds nuw i8, ptr %0, i64 64
  %6 = load i32, ptr %5, align 8
  %7 = icmp sgt i32 %6, 0
  br i1 %7, label %.lr.ph, label %.critedge

.lr.ph:                                           ; preds = %2
  %8 = getelementptr inbounds nuw i8, ptr %0, i64 60
  %.phi.trans.insert.i = getelementptr inbounds nuw i8, ptr %1, i64 8
  br label %9

9:                                                ; preds = %.lr.ph, %Vec_PtrPush.exit
  %.09 = phi i32 [ 0, %.lr.ph ], [ %45, %Vec_PtrPush.exit ]
  %10 = load ptr, ptr %4, align 8
  %11 = load i32, ptr %8, align 4
  %12 = add nsw i32 %11, %.09
  %13 = sext i32 %12 to i64
  %14 = getelementptr inbounds ptr, ptr %10, i64 %13
  %15 = load ptr, ptr %14, align 8
  %.not = icmp eq ptr %15, null
  br i1 %.not, label %.critedge, label %16

16:                                               ; preds = %9
  %17 = load i32, ptr %3, align 4
  %18 = load i32, ptr %1, align 8
  %19 = icmp eq i32 %17, %18
  br i1 %19, label %20, label %.Vec_PtrGrow.exit11_crit_edge.i

.Vec_PtrGrow.exit11_crit_edge.i:                  ; preds = %16
  %.pre.i = load ptr, ptr %.phi.trans.insert.i, align 8
  br label %Vec_PtrPush.exit

20:                                               ; preds = %16
  %21 = icmp slt i32 %17, 16
  br i1 %21, label %22, label %29

22:                                               ; preds = %20
  %23 = load ptr, ptr %.phi.trans.insert.i, align 8
  %.not9.i.i = icmp eq ptr %23, null
  br i1 %.not9.i.i, label %26, label %24

24:                                               ; preds = %22
  %25 = tail call dereferenceable_or_null(128) ptr @realloc(ptr noundef nonnull %23, i64 noundef 128) #9
  br label %Vec_PtrGrow.exit.i

26:                                               ; preds = %22
  %27 = tail call noalias dereferenceable_or_null(128) ptr @malloc(i64 noundef 128) #10
  br label %Vec_PtrGrow.exit.i

Vec_PtrGrow.exit.i:                               ; preds = %26, %24
  %28 = phi ptr [ %25, %24 ], [ %27, %26 ]
  store ptr %28, ptr %.phi.trans.insert.i, align 8
  store i32 16, ptr %1, align 8
  br label %Vec_PtrPush.exit

29:                                               ; preds = %20
  %30 = shl nuw nsw i32 %17, 1
  %31 = load ptr, ptr %.phi.trans.insert.i, align 8
  %.not9.i10.i = icmp eq ptr %31, null
  %32 = zext nneg i32 %30 to i64
  %33 = shl nuw nsw i64 %32, 3
  br i1 %.not9.i10.i, label %36, label %34

34:                                               ; preds = %29
  %35 = tail call ptr @realloc(ptr noundef nonnull %31, i64 noundef %33) #9
  br label %38

36:                                               ; preds = %29
  %37 = tail call noalias ptr @malloc(i64 noundef %33) #10
  br label %38

38:                                               ; preds = %36, %34
  %39 = phi ptr [ %35, %34 ], [ %37, %36 ]
  store ptr %39, ptr %.phi.trans.insert.i, align 8
  store i32 %30, ptr %1, align 8
  br label %Vec_PtrPush.exit

Vec_PtrPush.exit:                                 ; preds = %.Vec_PtrGrow.exit11_crit_edge.i, %Vec_PtrGrow.exit.i, %38
  %40 = phi ptr [ %.pre.i, %.Vec_PtrGrow.exit11_crit_edge.i ], [ %39, %38 ], [ %28, %Vec_PtrGrow.exit.i ]
  %41 = load i32, ptr %3, align 4
  %42 = add nsw i32 %41, 1
  store i32 %42, ptr %3, align 4
  %43 = sext i32 %41 to i64
  %44 = getelementptr inbounds ptr, ptr %40, i64 %43
  store ptr %15, ptr %44, align 8
  %45 = add nuw nsw i32 %.09, 1
  %46 = load i32, ptr %5, align 8
  %47 = icmp slt i32 %45, %46
  br i1 %47, label %9, label %.critedge, !llvm.loop !6

.critedge:                                        ; preds = %9, %Vec_PtrPush.exit, %2
  ret void
}